target datalayout = "e-m:e-p270:32:32-p271:32:32-p272:64:64-i64:64-i128:128-f80:128-n8:16:32:64-S128"
target triple = "x86_64-pc-linux-gnu"

; Function Attrs: nounwind uwtable
define internal void @maskedmerge32(ptr noundef %0, ptr noundef %1, ptr noundef %2, ptr noundef %3, i64 noundef %4, i64 noundef %5, i64 noundef %6, i64 noundef %7, i32 noundef %8, i32 noundef %9, i32 noundef %10, i32 noundef %11) #2 {
  %13 = alloca ptr, align 8
  %14 = alloca ptr, align 8
  %15 = alloca ptr, align 8
  %16 = alloca ptr, align 8
  %17 = alloca i64, align 8
  %18 = alloca i64, align 8
  %19 = alloca i64, align 8
  %20 = alloca i64, align 8
  %21 = alloca i32, align 4
  %22 = alloca i32, align 4
  %23 = alloca i32, align 4
  %24 = alloca i32, align 4
  %25 = alloca ptr, align 8
  %26 = alloca ptr, align 8
  %27 = alloca ptr, align 8
  %28 = alloca ptr, align 8
  %29 = alloca i32, align 4
  %30 = alloca i32, align 4
  %31 = alloca i32, align 4
  %32 = alloca float, align 4
  %33 = alloca float, align 4
  store ptr %0, ptr %13, align 8, !tbaa !54
  store ptr %1, ptr %14, align 8, !tbaa !54
  store ptr %2, ptr %15, align 8, !tbaa !54
  store ptr %3, ptr %16, align 8, !tbaa !54
  store i64 %4, ptr %17, align 8, !tbaa !55
  store i64 %5, ptr %18, align 8, !tbaa !55
  store i64 %6, ptr %19, align 8, !tbaa !55
  store i64 %7, ptr %20, align 8, !tbaa !55
  store i32 %8, ptr %21, align 4, !tbaa !44
  store i32 %9, ptr %22, align 4, !tbaa !44
  store i32 %10, ptr %23, align 4, !tbaa !44
  store i32 %11, ptr %24, align 4, !tbaa !44
  call void @llvm.lifetime.start.p0(i64 8, ptr %25) #10
  %34 = load ptr, ptr %13, align 8, !tbaa !54
  store ptr %34, ptr %25, align 8, !tbaa !66
  call void @llvm.lifetime.start.p0(i64 8, ptr %26) #10
  %35 = load ptr, ptr %14, align 8, !tbaa !54
  store ptr %35, ptr %26, align 8, !tbaa !66
  call void @llvm.lifetime.start.p0(i64 8, ptr %27) #10
  %36 = load ptr, ptr %15, align 8, !tbaa !54
  store ptr %36, ptr %27, align 8, !tbaa !66
  call void @llvm.lifetime.start.p0(i64 8, ptr %28) #10
  %37 = load ptr, ptr %16, align 8, !tbaa !54
  store ptr %37, ptr %28, align 8, !tbaa !66
  %38 = load i64, ptr %20, align 8, !tbaa !55
  %39 = udiv i64 %38, 4
  store i64 %39, ptr %20, align 8, !tbaa !55
  %40 = load i64, ptr %17, align 8, !tbaa !55
  %41 = udiv i64 %40, 4
  store i64 %41, ptr %17, align 8, !tbaa !55
  %42 = load i64, ptr %18, align 8, !tbaa !55
  %43 = udiv i64 %42, 4
  store i64 %43, ptr %18, align 8, !tbaa !55
  %44 = load i64, ptr %19, align 8, !tbaa !55
  %45 = udiv i64 %44, 4
  store i64 %45, ptr %19, align 8, !tbaa !55
  call void @llvm.lifetime.start.p0(i64 4, ptr %29) #10
  store i32 0, ptr %29, align 4, !tbaa !44
  br label %46

46:                                               ; preds = %104, %12
  %47 = load i32, ptr %29, align 4, !tbaa !44
  %48 = load i32, ptr %22, align 4, !tbaa !44
  %49 = icmp slt i32 %47, %48
  br i1 %49, label %51, label %50

50:                                               ; preds = %46
  store i32 2, ptr %30, align 4
  call void @llvm.lifetime.end.p0(i64 4, ptr %29) #10
  br label %107

51:                                               ; preds = %46
  call void @llvm.lifetime.start.p0(i64 4, ptr %31) #10
  store i32 0, ptr %31, align 4, !tbaa !44
  br label %52

52:                                               ; preds = %88, %51
  %53 = load i32, ptr %31, align 4, !tbaa !44
  %54 = load i32, ptr %21, align 4, !tbaa !44
  %55 = icmp slt i32 %53, %54
  br i1 %55, label %57, label %56

56:                                               ; preds = %52
  store i32 5, ptr %30, align 4
  call void @llvm.lifetime.end.p0(i64 4, ptr %31) #10
  br label %91

57:                                               ; preds = %52
  call void @llvm.lifetime.start.p0(i64 4, ptr %32) #10
  %58 = load ptr, ptr %27, align 8, !tbaa !66
  %59 = load i32, ptr %31, align 4, !tbaa !44
  %60 = sext i32 %59 to i64
  %61 = getelementptr inbounds float, ptr %58, i64 %60
  %62 = load float, ptr %61, align 4, !tbaa !68
  %63 = fsub nsz float 1.000000e+00, %62
  store float %63, ptr %32, align 4, !tbaa !68
  call void @llvm.lifetime.start.p0(i64 4, ptr %33) #10
  %64 = load ptr, ptr %25, align 8, !tbaa !66
  %65 = load i32, ptr %31, align 4, !tbaa !44
  %66 = sext i32 %65 to i64
  %67 = getelementptr inbounds float, ptr %64, i64 %66
  %68 = load float, ptr %67, align 4, !tbaa !68
  %69 = load float, ptr %32, align 4, !tbaa !68
  %70 = load ptr, ptr %27, align 8, !tbaa !66
  %71 = load i32, ptr %31, align 4, !tbaa !44
  %72 = sext i32 %71 to i64
  %73 = getelementptr inbounds float, ptr %70, i64 %72
  %74 = load float, ptr %73, align 4, !tbaa !68
  %75 = load ptr, ptr %26, align 8, !tbaa !66
  %76 = load i32, ptr %31, align 4, !tbaa !44
  %77 = sext i32 %76 to i64
  %78 = getelementptr inbounds float, ptr %75, i64 %77
  %79 = load float, ptr %78, align 4, !tbaa !68
  %80 = call nsz float @llvm.fmuladd.f32(float %74, float %79, float 0.000000e+00)
  %81 = call nsz float @llvm.fmuladd.f32(float %68, float %69, float %80)
  %82 = fadd nsz float %81, 0.000000e+00
  store float %82, ptr %33, align 4, !tbaa !68
  %83 = load float, ptr %33, align 4, !tbaa !68
  %84 = load ptr, ptr %28, align 8, !tbaa !66
  %85 = load i32, ptr %31, align 4, !tbaa !44
  %86 = sext i32 %85 to i64
  %87 = getelementptr inbounds float, ptr %84, i64 %86
  store float %83, ptr %87, align 4, !tbaa !68
  call void @llvm.lifetime.end.p0(i64 4, ptr %33) #10
  call void @llvm.lifetime.end.p0(i64 4, ptr %32) #10
  br label %88

88:                                               ; preds = %57
  %89 = load i32, ptr %31, align 4, !tbaa !44
  %90 = add nsw i32 %89, 1
  store i32 %90, ptr %31, align 4, !tbaa !44
  br label %52, !llvm.loop !70

91:                                               ; preds = %56
  %92 = load i64, ptr %20, align 8, !tbaa !55
  %93 = load ptr, ptr %28, align 8, !tbaa !66
  %94 = getelementptr inbounds float, ptr %93, i64 %92
  store ptr %94, ptr %28, align 8, !tbaa !66
  %95 = load i64, ptr %17, align 8, !tbaa !55
  %96 = load ptr, ptr %25, align 8, !tbaa !66
  %97 = getelementptr inbounds float, ptr %96, i64 %95
  store ptr %97, ptr %25, align 8, !tbaa !66
  %98 = load i64, ptr %18, align 8, !tbaa !55
  %99 = load ptr, ptr %26, align 8, !tbaa !66
  %100 = getelementptr inbounds float, ptr %99, i64 %98
  store ptr %100, ptr %26, align 8, !tbaa !66
  %101 = load i64, ptr %19, align 8, !tbaa !55
  %102 = load ptr, ptr %27, align 8, !tbaa !66
  %103 = getelementptr inbounds float, ptr %102, i64 %101
  store ptr %103, ptr %27, align 8, !tbaa !66
  br label %104

104:                                              ; preds = %91
  %105 = load i32, ptr %29, align 4, !tbaa !44
  %106 = add nsw i32 %105, 1
  store i32 %106, ptr %29, align 4, !tbaa !44
  br label %46, !llvm.loop !71

107:                                              ; preds = %50
  call void @llvm.lifetime.end.p0(i64 8, ptr %28) #10
  call void @llvm.lifetime.end.p0(i64 8, ptr %27) #10
  call void @llvm.lifetime.end.p0(i64 8, ptr %26) #10
  call void @llvm.lifetime.end.p0(i64 8, ptr %25) #10
  ret void
}