; Function Attrs: nofree norecurse nosync nounwind memory(argmem: readwrite) uwtable
define internal void @maskedmerge32(ptr noundef readonly captures(none) %0, ptr noundef readonly captures(none) %1, ptr noundef readonly captures(none) %2, ptr noundef writeonly captures(none) %3, i64 noundef %4, i64 noundef %5, i64 noundef %6, i64 noundef %7, i32 noundef %8, i32 noundef %9, i32 %10, i32 %11) #4 {
  %13 = lshr i64 %7, 2
  %14 = lshr i64 %4, 2
  %15 = lshr i64 %5, 2
  %16 = lshr i64 %6, 2
  %17 = icmp sgt i32 %9, 0
  %18 = icmp sgt i32 %8, 0
  %or.cond = and i1 %17, %18
  br i1 %or.cond, label %.preheader.us.preheader, label %._crit_edge44

.preheader.us.preheader:                          ; preds = %12
  %wide.trip.count = zext nneg i32 %8 to i64
  br label %.preheader.us

.preheader.us:                                    ; preds = %.preheader.us.preheader, %._crit_edge.us
  %.03343.us = phi i32 [ %34, %._crit_edge.us ], [ 0, %.preheader.us.preheader ]
  %.03442.us = phi ptr [ %30, %._crit_edge.us ], [ %3, %.preheader.us.preheader ]
  %.03541.us = phi ptr [ %33, %._crit_edge.us ], [ %2, %.preheader.us.preheader ]
  %.03640.us = phi ptr [ %32, %._crit_edge.us ], [ %1, %.preheader.us.preheader ]
  %.03739.us = phi ptr [ %31, %._crit_edge.us ], [ %0, %.preheader.us.preheader ]
  br label %19

19:                                               ; preds = %.preheader.us, %19
  %indvars.iv = phi i64 [ 0, %.preheader.us ], [ %indvars.iv.next, %19 ]
  %20 = getelementptr inbounds nuw float, ptr %.03541.us, i64 %indvars.iv
  %21 = load float, ptr %20, align 4, !tbaa !55
  %22 = fsub nsz float 1.000000e+00, %21
  %23 = getelementptr inbounds nuw float, ptr %.03739.us, i64 %indvars.iv
  %24 = load float, ptr %23, align 4, !tbaa !55
  %25 = getelementptr inbounds nuw float, ptr %.03640.us, i64 %indvars.iv
  %26 = load float, ptr %25, align 4, !tbaa !55
  %27 = fmul nsz float %21, %26
  %28 = tail call nsz float @llvm.fmuladd.f32(float %24, float %22, float %27)
  %29 = getelementptr inbounds nuw float, ptr %.03442.us, i64 %indvars.iv
  store float %28, ptr %29, align 4, !tbaa !55
  %indvars.iv.next = add nuw nsw i64 %indvars.iv, 1
  %exitcond.not = icmp eq i64 %indvars.iv.next, %wide.trip.count
  br i1 %exitcond.not, label %._crit_edge.us, label %19, !llvm.loop !57

._crit_edge.us:                                   ; preds = %19
  %30 = getelementptr inbounds nuw float, ptr %.03442.us, i64 %13
  %31 = getelementptr inbounds nuw float, ptr %.03739.us, i64 %14
  %32 = getelementptr inbounds nuw float, ptr %.03640.us, i64 %15
  %33 = getelementptr inbounds nuw float, ptr %.03541.us, i64 %16
  %34 = add nuw nsw i32 %.03343.us, 1
  %exitcond47.not = icmp eq i32 %34, %9
  br i1 %exitcond47.not, label %._crit_edge44, label %.preheader.us, !llvm.loop !58

._crit_edge44:                                    ; preds = %._crit_edge.us, %12
  ret void
}